; Function Attrs: mustprogress nofree norecurse nosync nounwind willreturn memory(argmem: readwrite) uwtable
define hidden void @_ZN12opencv_caffe22NormalizeBBoxParameter12InternalSwapEPS0_(ptr noundef nonnull align 8 captures(none) dereferenceable(40) %0, ptr noundef captures(none) %1) local_unnamed_addr #13 align 2 {
  %3 = getelementptr inbounds nuw i8, ptr %0, i64 8
  %4 = getelementptr inbounds nuw i8, ptr %1, i64 8
  %5 = load i64, ptr %3, align 8, !tbaa !42
  %6 = load i64, ptr %4, align 8, !tbaa !42
  store i64 %6, ptr %3, align 8, !tbaa !42
  store i64 %5, ptr %4, align 8, !tbaa !42
  %7 = getelementptr inbounds nuw i8, ptr %0, i64 16
  %8 = getelementptr inbounds nuw i8, ptr %1, i64 16
  %9 = load i32, ptr %7, align 8, !tbaa !71
  %10 = load i32, ptr %8, align 4, !tbaa !71
  store i32 %10, ptr %7, align 8, !tbaa !71
  store i32 %9, ptr %8, align 4, !tbaa !71
  %11 = getelementptr inbounds nuw i8, ptr %0, i64 24
  %12 = getelementptr inbounds nuw i8, ptr %1, i64 24
  %13 = load ptr, ptr %11, align 8, !tbaa !132
  %14 = load ptr, ptr %12, align 8, !tbaa !132
  store ptr %14, ptr %11, align 8, !tbaa !132
  store ptr %13, ptr %12, align 8, !tbaa !132
  %15 = getelementptr inbounds nuw i8, ptr %0, i64 32
  %16 = getelementptr inbounds nuw i8, ptr %1, i64 32
  %17 = load i8, ptr %15, align 8, !tbaa !133, !range !126, !noundef !127
  %18 = load i8, ptr %16, align 1, !tbaa !133, !range !126, !noundef !127
  store i8 %18, ptr %15, align 8, !tbaa !133
  store i8 %17, ptr %16, align 1, !tbaa !133
  %19 = getelementptr inbounds nuw i8, ptr %0, i64 33
  %20 = getelementptr inbounds nuw i8, ptr %1, i64 33
  %21 = load i8, ptr %19, align 1, !tbaa !133, !range !126, !noundef !127
  %22 = load i8, ptr %20, align 1, !tbaa !133, !range !126, !noundef !127
  store i8 %22, ptr %19, align 1, !tbaa !133
  store i8 %21, ptr %20, align 1, !tbaa !133
  %23 = getelementptr inbounds nuw i8, ptr %0, i64 36
  %24 = getelementptr inbounds nuw i8, ptr %1, i64 36
  %25 = load float, ptr %23, align 4, !tbaa !83
  %26 = load float, ptr %24, align 4, !tbaa !83
  store float %26, ptr %23, align 4, !tbaa !83
  store float %25, ptr %24, align 4, !tbaa !83
  ret void
}